target datalayout = "e-m:e-p270:32:32-p271:32:32-p272:64:64-i64:64-i128:128-f80:128-n8:16:32:64-S128"
target triple = "x86_64-unknown-linux-gnu"

%struct.BlockLimits = type { i32, i64, i32, i64, i32, i32, i32, i64, i32, i64, i64, i32, i8, i32, i32, i32, i32, i32, i32, i32 }
%struct.BlockDriverState = type { i32, i8, i8, i8, i8, i8, ptr, ptr, ptr, %struct.anon.1, i8, [4096 x i8], [4096 x i8], [4096 x i8], [16 x i8], ptr, [4096 x i8], %struct.BlockLimits, i32, i32, i32, i32, [32 x i8], %union.anon, %union.anon.2, %union.anon.3, i32, [16 x %struct.anon.4], ptr, %struct.anon.5, ptr, ptr, %struct.anon.6, ptr, ptr, i32, ptr, i64, i64, %struct.QemuMutex, %struct.anon.7, %struct.Stat64, i32, i32, i32, i32, i32, i32, %struct.QemuMutex, %struct.anon.8, %struct.CoQueue, i8, i32, i8, %struct.CoMutex, ptr, ptr }
%struct.anon.1 = type { ptr }
%union.anon = type { %struct.QTailQLink }
%struct.QTailQLink = type { ptr, ptr }
%union.anon.2 = type { %struct.QTailQLink }
%union.anon.3 = type { %struct.QTailQLink }
%struct.anon.4 = type { ptr }
%struct.anon.5 = type { ptr }
%struct.anon.6 = type { ptr }
%struct.anon.7 = type { ptr }
%struct.Stat64 = type { i64 }
%struct.QemuMutex = type { %union.pthread_mutex_t, i8 }
%union.pthread_mutex_t = type { %struct.__pthread_mutex_s }
%struct.__pthread_mutex_s = type { i32, i32, i32, i32, i32, i16, i16, %struct.__pthread_internal_list }
%struct.__pthread_internal_list = type { ptr, ptr }
%struct.anon.8 = type { ptr }
%struct.CoQueue = type { %struct.anon.9 }
%struct.anon.9 = type { ptr, ptr }
%struct.CoMutex = type { i32, ptr, %struct.anon.10, %struct.anon.10, i32, i32, ptr }
%struct.anon.10 = type { ptr }
%struct.BlockDriver = type { ptr, i32, i8, i8, i8, i8, i8, i8, ptr, ptr, ptr, ptr, ptr, ptr, ptr, ptr, ptr, ptr, ptr, ptr, ptr, ptr, ptr, ptr, ptr, ptr, ptr, ptr, ptr, ptr, ptr, ptr, ptr, ptr, ptr, ptr, ptr, ptr, ptr, ptr, ptr, ptr, ptr, ptr, ptr, ptr, ptr, ptr, ptr, ptr, ptr, ptr, ptr, ptr, ptr, ptr, ptr, ptr, ptr, ptr, ptr, %struct.anon.11, ptr, ptr, ptr, ptr, ptr, ptr, ptr, ptr, ptr, ptr, ptr, ptr, ptr, ptr, ptr, ptr, ptr, ptr, ptr, ptr, ptr, ptr, ptr, ptr, ptr, ptr, ptr, ptr, ptr, ptr, ptr, ptr, ptr, ptr, ptr, ptr, ptr, ptr, ptr, ptr, ptr, ptr, ptr, ptr, ptr, ptr, ptr, ptr, ptr }
%struct.anon.11 = type { ptr, ptr }
%struct.QEMUIOVector = type { ptr, i32, %union.anon.13 }
%union.anon.13 = type { %struct.anon.14 }
%struct.anon.14 = type { i32, %struct.iovec }
%struct.iovec = type { ptr, i64 }
%struct.anon.15 = type { [12 x i8], i64 }
%struct.CoroutineIOCompletion = type { ptr, i32 }

@.str.1 = private unnamed_addr constant [19 x i8] c"../qemu/block/io.c\00", align 1
@.str.4 = private unnamed_addr constant [13 x i8] c"coroutine_fn\00", section "llvm.metadata"
@.str.5 = private unnamed_addr constant [111 x i8] c"/home/dtcxzyw/WorkSpace/Projects/compilers/llvm-opt-benchmark/bench/qemu/qemu/include/block/block_int-common.h\00", section "llvm.metadata"
@error_abort = external global ptr, align 8
@.str.69 = private unnamed_addr constant [42 x i8] c"QEMU_IS_ALIGNED(offset, BDRV_SECTOR_SIZE)\00", align 1
@.str.70 = private unnamed_addr constant [41 x i8] c"QEMU_IS_ALIGNED(bytes, BDRV_SECTOR_SIZE)\00", align 1
@.str.71 = private unnamed_addr constant [32 x i8] c"bytes <= BDRV_REQUEST_MAX_BYTES\00", align 1
@.str.73 = private unnamed_addr constant [37 x i8] c"!(flags & ~bs->supported_read_flags)\00", align 1
@__PRETTY_FUNCTION__.bdrv_driver_preadv = private unnamed_addr constant [90 x i8] c"int bdrv_driver_preadv(BlockDriverState *, int64_t, int64_t, QEMUIOVector *, size_t, int)\00", align 1
@.str.74 = private unnamed_addr constant [19 x i8] c"drv->bdrv_co_readv\00", align 1

; Function Attrs: nounwind sspstrong uwtable
define internal i32 @bdrv_driver_preadv(ptr noundef %bs, i64 noundef %offset, i64 noundef %bytes, ptr noundef %qiov, i64 noundef %qiov_offset, i32 noundef %flags) #0 {
entry:
  %retval = alloca i32, align 4
  %bs.addr = alloca ptr, align 8
  %offset.addr = alloca i64, align 8
  %bytes.addr = alloca i64, align 8
  %qiov.addr = alloca ptr, align 8
  %qiov_offset.addr = alloca i64, align 8
  %flags.addr = alloca i32, align 4
  %drv = alloca ptr, align 8
  %sector_num = alloca i64, align 8
  %nb_sectors = alloca i32, align 4
  %local_qiov = alloca %struct.QEMUIOVector, align 8
  %ret = alloca i32, align 4
  %acb = alloca ptr, align 8
  %co = alloca %struct.CoroutineIOCompletion, align 8
  store ptr %bs, ptr %bs.addr, align 8
  store i64 %offset, ptr %offset.addr, align 8
  store i64 %bytes, ptr %bytes.addr, align 8
  store ptr %qiov, ptr %qiov.addr, align 8
  store i64 %qiov_offset, ptr %qiov_offset.addr, align 8
  store i32 %flags, ptr %flags.addr, align 4
  %0 = load ptr, ptr %bs.addr, align 8
  %drv1 = getelementptr inbounds %struct.BlockDriverState, ptr %0, i32 0, i32 6
  %1 = load ptr, ptr %drv1, align 8
  store ptr %1, ptr %drv, align 8
  call void @assert_bdrv_graph_readable()
  %2 = load i64, ptr %offset.addr, align 8
  %3 = load i64, ptr %bytes.addr, align 8
  %4 = load ptr, ptr %qiov.addr, align 8
  %5 = load i64, ptr %qiov_offset.addr, align 8
  %call = call i32 @bdrv_check_qiov_request(i64 noundef %2, i64 noundef %3, ptr noundef %4, i64 noundef %5, ptr noundef @error_abort)
  %6 = load i32, ptr %flags.addr, align 4
  %7 = load ptr, ptr %bs.addr, align 8
  %supported_read_flags = getelementptr inbounds %struct.BlockDriverState, ptr %7, i32 0, i32 18
  %8 = load i32, ptr %supported_read_flags, align 8
  %not = xor i32 %8, -1
  %and = and i32 %6, %not
  %tobool = icmp ne i32 %and, 0
  br i1 %tobool, label %if.else, label %if.then

if.then:                                          ; preds = %entry
  br label %if.end

if.else:                                          ; preds = %entry
  call void @__assert_fail(ptr noundef @.str.73, ptr noundef @.str.1, i32 noundef 1015, ptr noundef @__PRETTY_FUNCTION__.bdrv_driver_preadv) #10
  unreachable

if.end:                                           ; preds = %if.then
  %9 = load ptr, ptr %drv, align 8
  %tobool2 = icmp ne ptr %9, null
  br i1 %tobool2, label %if.end4, label %if.then3

if.then3:                                         ; preds = %if.end
  store i32 -123, ptr %retval, align 4
  br label %return

if.end4:                                          ; preds = %if.end
  %10 = load ptr, ptr %drv, align 8
  %bdrv_co_preadv_part = getelementptr inbounds %struct.BlockDriver, ptr %10, i32 0, i32 70
  %11 = call ptr @llvm.ptr.annotation.p0.p0(ptr %bdrv_co_preadv_part, ptr @.str.4, ptr @.str.5, i32 538, ptr null)
  %12 = load ptr, ptr %11, align 8
  %tobool5 = icmp ne ptr %12, null
  br i1 %tobool5, label %if.then6, label %if.end9

if.then6:                                         ; preds = %if.end4
  %13 = load ptr, ptr %drv, align 8
  %bdrv_co_preadv_part7 = getelementptr inbounds %struct.BlockDriver, ptr %13, i32 0, i32 70
  %14 = call ptr @llvm.ptr.annotation.p0.p0(ptr %bdrv_co_preadv_part7, ptr @.str.4, ptr @.str.5, i32 538, ptr null)
  %15 = load ptr, ptr %14, align 8
  %16 = load ptr, ptr %bs.addr, align 8
  %17 = load i64, ptr %offset.addr, align 8
  %18 = load i64, ptr %bytes.addr, align 8
  %19 = load ptr, ptr %qiov.addr, align 8
  %20 = load i64, ptr %qiov_offset.addr, align 8
  %21 = load i32, ptr %flags.addr, align 4
  %call8 = call i32 %15(ptr noundef %16, i64 noundef %17, i64 noundef %18, ptr noundef %19, i64 noundef %20, i32 noundef %21)
  store i32 %call8, ptr %retval, align 4
  br label %return

if.end9:                                          ; preds = %if.end4
  %22 = load i64, ptr %qiov_offset.addr, align 8
  %cmp = icmp ugt i64 %22, 0
  br i1 %cmp, label %if.then11, label %lor.lhs.false

lor.lhs.false:                                    ; preds = %if.end9
  %23 = load i64, ptr %bytes.addr, align 8
  %24 = load ptr, ptr %qiov.addr, align 8
  %25 = getelementptr inbounds %struct.QEMUIOVector, ptr %24, i32 0, i32 2
  %size = getelementptr inbounds %struct.anon.15, ptr %25, i32 0, i32 1
  %26 = load i64, ptr %size, align 8
  %cmp10 = icmp ne i64 %23, %26
  br i1 %cmp10, label %if.then11, label %if.end12

if.then11:                                        ; preds = %lor.lhs.false, %if.end9
  %27 = load ptr, ptr %qiov.addr, align 8
  %28 = load i64, ptr %qiov_offset.addr, align 8
  %29 = load i64, ptr %bytes.addr, align 8
  call void @qemu_iovec_init_slice(ptr noundef %local_qiov, ptr noundef %27, i64 noundef %28, i64 noundef %29)
  store ptr %local_qiov, ptr %qiov.addr, align 8
  br label %if.end12

if.end12:                                         ; preds = %if.then11, %lor.lhs.false
  %30 = load ptr, ptr %drv, align 8
  %bdrv_co_preadv = getelementptr inbounds %struct.BlockDriver, ptr %30, i32 0, i32 69
  %31 = call ptr @llvm.ptr.annotation.p0.p0(ptr %bdrv_co_preadv, ptr @.str.4, ptr @.str.5, i32 534, ptr null)
  %32 = load ptr, ptr %31, align 8
  %tobool13 = icmp ne ptr %32, null
  br i1 %tobool13, label %if.then14, label %if.end17

if.then14:                                        ; preds = %if.end12
  %33 = load ptr, ptr %drv, align 8
  %bdrv_co_preadv15 = getelementptr inbounds %struct.BlockDriver, ptr %33, i32 0, i32 69
  %34 = call ptr @llvm.ptr.annotation.p0.p0(ptr %bdrv_co_preadv15, ptr @.str.4, ptr @.str.5, i32 534, ptr null)
  %35 = load ptr, ptr %34, align 8
  %36 = load ptr, ptr %bs.addr, align 8
  %37 = load i64, ptr %offset.addr, align 8
  %38 = load i64, ptr %bytes.addr, align 8
  %39 = load ptr, ptr %qiov.addr, align 8
  %40 = load i32, ptr %flags.addr, align 4
  %call16 = call i32 %35(ptr noundef %36, i64 noundef %37, i64 noundef %38, ptr noundef %39, i32 noundef %40)
  store i32 %call16, ptr %ret, align 4
  br label %out

if.end17:                                         ; preds = %if.end12
  %41 = load ptr, ptr %drv, align 8
  %bdrv_aio_preadv = getelementptr inbounds %struct.BlockDriver, ptr %41, i32 0, i32 64
  %42 = load ptr, ptr %bdrv_aio_preadv, align 8
  %tobool18 = icmp ne ptr %42, null
  br i1 %tobool18, label %if.then19, label %if.end28

if.then19:                                        ; preds = %if.end17
  %coroutine = getelementptr inbounds %struct.CoroutineIOCompletion, ptr %co, i32 0, i32 0
  %call20 = call ptr @qemu_coroutine_self()
  store ptr %call20, ptr %coroutine, align 8
  %ret21 = getelementptr inbounds %struct.CoroutineIOCompletion, ptr %co, i32 0, i32 1
  store i32 0, ptr %ret21, align 8
  %43 = load ptr, ptr %drv, align 8
  %bdrv_aio_preadv22 = getelementptr inbounds %struct.BlockDriver, ptr %43, i32 0, i32 64
  %44 = load ptr, ptr %bdrv_aio_preadv22, align 8
  %45 = load ptr, ptr %bs.addr, align 8
  %46 = load i64, ptr %offset.addr, align 8
  %47 = load i64, ptr %bytes.addr, align 8
  %48 = load ptr, ptr %qiov.addr, align 8
  %49 = load i32, ptr %flags.addr, align 4
  %call23 = call ptr %44(ptr noundef %45, i64 noundef %46, i64 noundef %47, ptr noundef %48, i32 noundef %49, ptr noundef @bdrv_co_io_em_complete, ptr noundef %co)
  store ptr %call23, ptr %acb, align 8
  %50 = load ptr, ptr %acb, align 8
  %cmp24 = icmp eq ptr %50, null
  br i1 %cmp24, label %if.then25, label %if.else26

if.then25:                                        ; preds = %if.then19
  store i32 -5, ptr %ret, align 4
  br label %out

if.else26:                                        ; preds = %if.then19
  call void @qemu_coroutine_yield()
  %ret27 = getelementptr inbounds %struct.CoroutineIOCompletion, ptr %co, i32 0, i32 1
  %51 = load i32, ptr %ret27, align 8
  store i32 %51, ptr %ret, align 4
  br label %out

if.end28:                                         ; preds = %if.end17
  %52 = load i64, ptr %offset.addr, align 8
  %shr = ashr i64 %52, 9
  store i64 %shr, ptr %sector_num, align 8
  %53 = load i64, ptr %bytes.addr, align 8
  %shr29 = ashr i64 %53, 9
  %conv = trunc i64 %shr29 to i32
  store i32 %conv, ptr %nb_sectors, align 4
  %54 = load i64, ptr %offset.addr, align 8
  %rem = urem i64 %54, 512
  %cmp30 = icmp eq i64 %rem, 0
  br i1 %cmp30, label %if.then32, label %if.else33

if.then32:                                        ; preds = %if.end28
  br label %if.end34

if.else33:                                        ; preds = %if.end28
  call void @__assert_fail(ptr noundef @.str.69, ptr noundef @.str.1, i32 noundef 1057, ptr noundef @__PRETTY_FUNCTION__.bdrv_driver_preadv) #10
  unreachable

if.end34:                                         ; preds = %if.then32
  %55 = load i64, ptr %bytes.addr, align 8
  %rem35 = urem i64 %55, 512
  %cmp36 = icmp eq i64 %rem35, 0
  br i1 %cmp36, label %if.then38, label %if.else39

if.then38:                                        ; preds = %if.end34
  br label %if.end40

if.else39:                                        ; preds = %if.end34
  call void @__assert_fail(ptr noundef @.str.70, ptr noundef @.str.1, i32 noundef 1058, ptr noundef @__PRETTY_FUNCTION__.bdrv_driver_preadv) #10
  unreachable

if.end40:                                         ; preds = %if.then38
  %56 = load i64, ptr %bytes.addr, align 8
  %cmp41 = icmp ule i64 %56, 2147483136
  br i1 %cmp41, label %if.then43, label %if.else44

if.then43:                                        ; preds = %if.end40
  br label %if.end45

if.else44:                                        ; preds = %if.end40
  call void @__assert_fail(ptr noundef @.str.71, ptr noundef @.str.1, i32 noundef 1059, ptr noundef @__PRETTY_FUNCTION__.bdrv_driver_preadv) #10
  unreachable

if.end45:                                         ; preds = %if.then43
  %57 = load ptr, ptr %drv, align 8
  %bdrv_co_readv = getelementptr inbounds %struct.BlockDriver, ptr %57, i32 0, i32 68
  %58 = call ptr @llvm.ptr.annotation.p0.p0(ptr %bdrv_co_readv, ptr @.str.4, ptr @.str.5, i32 516, ptr null)
  %59 = load ptr, ptr %58, align 8
  %tobool46 = icmp ne ptr %59, null
  br i1 %tobool46, label %if.then47, label %if.else48

if.then47:                                        ; preds = %if.end45
  br label %if.end49

if.else48:                                        ; preds = %if.end45
  call void @__assert_fail(ptr noundef @.str.74, ptr noundef @.str.1, i32 noundef 1060, ptr noundef @__PRETTY_FUNCTION__.bdrv_driver_preadv) #10
  unreachable

if.end49:                                         ; preds = %if.then47
  %60 = load ptr, ptr %drv, align 8
  %bdrv_co_readv50 = getelementptr inbounds %struct.BlockDriver, ptr %60, i32 0, i32 68
  %61 = call ptr @llvm.ptr.annotation.p0.p0(ptr %bdrv_co_readv50, ptr @.str.4, ptr @.str.5, i32 516, ptr null)
  %62 = load ptr, ptr %61, align 8
  %63 = load ptr, ptr %bs.addr, align 8
  %64 = load i64, ptr %sector_num, align 8
  %65 = load i32, ptr %nb_sectors, align 4
  %66 = load ptr, ptr %qiov.addr, align 8
  %call51 = call i32 %62(ptr noundef %63, i64 noundef %64, i32 noundef %65, ptr noundef %66)
  store i32 %call51, ptr %ret, align 4
  br label %out

out:                                              ; preds = %if.end49, %if.else26, %if.then25, %if.then14
  %67 = load ptr, ptr %qiov.addr, align 8
  %cmp52 = icmp eq ptr %67, %local_qiov
  br i1 %cmp52, label %if.then54, label %if.end55

if.then54:                                        ; preds = %out
  call void @qemu_iovec_destroy(ptr noundef %local_qiov)
  br label %if.end55

if.end55:                                         ; preds = %if.then54, %out
  %68 = load i32, ptr %ret, align 4
  store i32 %68, ptr %retval, align 4
  br label %return

return:                                           ; preds = %if.end55, %if.then6, %if.then3
  %69 = load i32, ptr %retval, align 4
  ret i32 %69
}