; Function Attrs: nounwind sspstrong uwtable
define internal i32 @bdrv_driver_preadv(ptr noundef %bs, i64 noundef %offset, i64 noundef %bytes, ptr noundef %qiov, i64 noundef %qiov_offset, i32 noundef %flags) #0 {
entry:
  %local_qiov = alloca %struct.QEMUIOVector, align 8
  %co = alloca %struct.CoroutineIOCompletion, align 8
  %drv1 = getelementptr inbounds nuw i8, ptr %bs, i64 16
  %0 = load ptr, ptr %drv1, align 8
  tail call void @assert_bdrv_graph_readable() #15
  %call = tail call i32 @bdrv_check_qiov_request(i64 noundef %offset, i64 noundef %bytes, ptr noundef %qiov, i64 noundef %qiov_offset, ptr noundef nonnull @error_abort)
  %supported_read_flags = getelementptr inbounds nuw i8, ptr %bs, i64 16584
  %1 = load i32, ptr %supported_read_flags, align 8
  %not = xor i32 %1, -1
  %and = and i32 %flags, %not
  %tobool.not = icmp eq i32 %and, 0
  br i1 %tobool.not, label %if.end, label %if.else

if.else:                                          ; preds = %entry
  tail call void @__assert_fail(ptr noundef nonnull @.str.73, ptr noundef nonnull @.str.1, i32 noundef 1015, ptr noundef nonnull @__PRETTY_FUNCTION__.bdrv_driver_preadv) #16
  unreachable

if.end:                                           ; preds = %entry
  %tobool2.not = icmp eq ptr %0, null
  br i1 %tobool2.not, label %return, label %if.end4

if.end4:                                          ; preds = %if.end
  %bdrv_co_preadv_part = getelementptr inbounds nuw i8, ptr %0, i64 528
  %2 = tail call ptr @llvm.ptr.annotation.p0.p0(ptr nonnull %bdrv_co_preadv_part, ptr nonnull @.str.4, ptr nonnull @.str.5, i32 538, ptr null)
  %3 = load ptr, ptr %2, align 8
  %tobool5.not = icmp eq ptr %3, null
  br i1 %tobool5.not, label %if.end9, label %if.then6

if.then6:                                         ; preds = %if.end4
  %4 = tail call ptr @llvm.ptr.annotation.p0.p0(ptr nonnull %bdrv_co_preadv_part, ptr nonnull @.str.4, ptr nonnull @.str.5, i32 538, ptr null)
  %5 = load ptr, ptr %4, align 8
  %call8 = tail call i32 %5(ptr noundef nonnull %bs, i64 noundef %offset, i64 noundef %bytes, ptr noundef %qiov, i64 noundef %qiov_offset, i32 noundef %flags) #15
  br label %return

if.end9:                                          ; preds = %if.end4
  %cmp.not = icmp eq i64 %qiov_offset, 0
  br i1 %cmp.not, label %lor.lhs.false, label %if.then11

lor.lhs.false:                                    ; preds = %if.end9
  %size = getelementptr inbounds nuw i8, ptr %qiov, i64 32
  %6 = load i64, ptr %size, align 8
  %cmp10.not = icmp eq i64 %bytes, %6
  br i1 %cmp10.not, label %if.end12, label %if.then11

if.then11:                                        ; preds = %lor.lhs.false, %if.end9
  call void @qemu_iovec_init_slice(ptr noundef nonnull %local_qiov, ptr noundef %qiov, i64 noundef %qiov_offset, i64 noundef %bytes) #15
  br label %if.end12

if.end12:                                         ; preds = %if.then11, %lor.lhs.false
  %qiov.addr.0 = phi ptr [ %local_qiov, %if.then11 ], [ %qiov, %lor.lhs.false ]
  %bdrv_co_preadv = getelementptr inbounds nuw i8, ptr %0, i64 520
  %7 = call ptr @llvm.ptr.annotation.p0.p0(ptr nonnull %bdrv_co_preadv, ptr nonnull @.str.4, ptr nonnull @.str.5, i32 534, ptr null)
  %8 = load ptr, ptr %7, align 8
  %tobool13.not = icmp eq ptr %8, null
  br i1 %tobool13.not, label %if.end17, label %if.then14

if.then14:                                        ; preds = %if.end12
  %9 = call ptr @llvm.ptr.annotation.p0.p0(ptr nonnull %bdrv_co_preadv, ptr nonnull @.str.4, ptr nonnull @.str.5, i32 534, ptr null)
  %10 = load ptr, ptr %9, align 8
  %call16 = call i32 %10(ptr noundef nonnull %bs, i64 noundef %offset, i64 noundef %bytes, ptr noundef nonnull %qiov.addr.0, i32 noundef %flags) #15
  br label %out

if.end17:                                         ; preds = %if.end12
  %bdrv_aio_preadv = getelementptr inbounds nuw i8, ptr %0, i64 480
  %11 = load ptr, ptr %bdrv_aio_preadv, align 8
  %tobool18.not = icmp eq ptr %11, null
  br i1 %tobool18.not, label %if.end28, label %if.then19

if.then19:                                        ; preds = %if.end17
  %call20 = call ptr @qemu_coroutine_self() #15
  store ptr %call20, ptr %co, align 8
  %ret21 = getelementptr inbounds nuw i8, ptr %co, i64 8
  store i32 0, ptr %ret21, align 8
  %12 = load ptr, ptr %bdrv_aio_preadv, align 8
  %call23 = call ptr %12(ptr noundef nonnull %bs, i64 noundef %offset, i64 noundef %bytes, ptr noundef nonnull %qiov.addr.0, i32 noundef %flags, ptr noundef nonnull @bdrv_co_io_em_complete, ptr noundef nonnull %co) #15
  %cmp24 = icmp eq ptr %call23, null
  br i1 %cmp24, label %out, label %if.else26

if.else26:                                        ; preds = %if.then19
  call void @qemu_coroutine_yield() #15
  %13 = load i32, ptr %ret21, align 8
  br label %out

if.end28:                                         ; preds = %if.end17
  %shr = ashr i64 %offset, 9
  %shr29 = lshr i64 %bytes, 9
  %conv = trunc i64 %shr29 to i32
  %rem = and i64 %offset, 511
  %cmp30 = icmp eq i64 %rem, 0
  br i1 %cmp30, label %if.end34, label %if.else33

if.else33:                                        ; preds = %if.end28
  call void @__assert_fail(ptr noundef nonnull @.str.69, ptr noundef nonnull @.str.1, i32 noundef 1057, ptr noundef nonnull @__PRETTY_FUNCTION__.bdrv_driver_preadv) #16
  unreachable

if.end34:                                         ; preds = %if.end28
  %rem35 = and i64 %bytes, 511
  %cmp36 = icmp eq i64 %rem35, 0
  br i1 %cmp36, label %if.end40, label %if.else39

if.else39:                                        ; preds = %if.end34
  call void @__assert_fail(ptr noundef nonnull @.str.70, ptr noundef nonnull @.str.1, i32 noundef 1058, ptr noundef nonnull @__PRETTY_FUNCTION__.bdrv_driver_preadv) #16
  unreachable

if.end40:                                         ; preds = %if.end34
  %cmp41 = icmp ult i64 %bytes, 2147483137
  br i1 %cmp41, label %if.end45, label %if.else44

if.else44:                                        ; preds = %if.end40
  call void @__assert_fail(ptr noundef nonnull @.str.71, ptr noundef nonnull @.str.1, i32 noundef 1059, ptr noundef nonnull @__PRETTY_FUNCTION__.bdrv_driver_preadv) #16
  unreachable

if.end45:                                         ; preds = %if.end40
  %bdrv_co_readv = getelementptr inbounds nuw i8, ptr %0, i64 512
  %14 = call ptr @llvm.ptr.annotation.p0.p0(ptr nonnull %bdrv_co_readv, ptr nonnull @.str.4, ptr nonnull @.str.5, i32 516, ptr null)
  %15 = load ptr, ptr %14, align 8
  %tobool46.not = icmp eq ptr %15, null
  br i1 %tobool46.not, label %if.else48, label %if.end49

if.else48:                                        ; preds = %if.end45
  call void @__assert_fail(ptr noundef nonnull @.str.74, ptr noundef nonnull @.str.1, i32 noundef 1060, ptr noundef nonnull @__PRETTY_FUNCTION__.bdrv_driver_preadv) #16
  unreachable

if.end49:                                         ; preds = %if.end45
  %16 = call ptr @llvm.ptr.annotation.p0.p0(ptr nonnull %bdrv_co_readv, ptr nonnull @.str.4, ptr nonnull @.str.5, i32 516, ptr null)
  %17 = load ptr, ptr %16, align 8
  %call51 = call i32 %17(ptr noundef nonnull %bs, i64 noundef %shr, i32 noundef %conv, ptr noundef nonnull %qiov.addr.0) #15
  br label %out

out:                                              ; preds = %if.then19, %if.end49, %if.else26, %if.then14
  %ret.0 = phi i32 [ %call16, %if.then14 ], [ %13, %if.else26 ], [ %call51, %if.end49 ], [ -5, %if.then19 ]
  %cmp52 = icmp eq ptr %qiov.addr.0, %local_qiov
  br i1 %cmp52, label %if.then54, label %return

if.then54:                                        ; preds = %out
  call void @qemu_iovec_destroy(ptr noundef nonnull %local_qiov) #15
  br label %return

return:                                           ; preds = %out, %if.then54, %if.end, %if.then6
  %retval.0 = phi i32 [ %call8, %if.then6 ], [ -123, %if.end ], [ %ret.0, %if.then54 ], [ %ret.0, %out ]
  ret i32 %retval.0
}